target datalayout = "e-m:e-p270:32:32-p271:32:32-p272:64:64-i64:64-i128:128-f80:128-n8:16:32:64-S128"
target triple = "x86_64-pc-linux-gnu"

%struct._dof_ns_session_key = type { i32, i32, i32, i8 }

; Function Attrs: null_pointer_is_valid sspstrong uwtable
define internal i32 @dof_ns_session_key_hash_fn(ptr noundef %0) #0 {
  %2 = alloca ptr, align 8
  %3 = alloca ptr, align 8
  %4 = alloca i32, align 4
  store ptr %0, ptr %2, align 8
  call void @llvm.lifetime.start.p0(i64 8, ptr %3) #19
  %5 = load ptr, ptr %2, align 8
  store ptr %5, ptr %3, align 8
  call void @llvm.lifetime.start.p0(i64 4, ptr %4) #19
  store i32 0, ptr %4, align 4
  %6 = load ptr, ptr %3, align 8
  %7 = getelementptr inbounds nuw %struct._dof_ns_session_key, ptr %6, i32 0, i32 0
  %8 = call i32 @g_int_hash(ptr noundef %7)
  %9 = load i32, ptr %4, align 4
  %10 = add i32 %9, %8
  store i32 %10, ptr %4, align 4
  %11 = load ptr, ptr %3, align 8
  %12 = getelementptr inbounds nuw %struct._dof_ns_session_key, ptr %11, i32 0, i32 1
  %13 = call i32 @g_int_hash(ptr noundef %12)
  %14 = load i32, ptr %4, align 4
  %15 = add i32 %14, %13
  store i32 %15, ptr %4, align 4
  %16 = load ptr, ptr %3, align 8
  %17 = getelementptr inbounds nuw %struct._dof_ns_session_key, ptr %16, i32 0, i32 2
  %18 = call i32 @g_int_hash(ptr noundef %17)
  %19 = load i32, ptr %4, align 4
  %20 = add i32 %19, %18
  store i32 %20, ptr %4, align 4
  %21 = load i32, ptr %4, align 4
  call void @llvm.lifetime.end.p0(i64 4, ptr %4) #19
  call void @llvm.lifetime.end.p0(i64 8, ptr %3) #19
  ret i32 %21
}