; Function Attrs: null_pointer_is_valid sspstrong uwtable
define internal i32 @dof_ns_session_key_hash_fn(ptr noundef %0) #0 {
  %2 = tail call i32 @g_int_hash(ptr noundef %0)
  %3 = getelementptr inbounds nuw i8, ptr %0, i64 4
  %4 = tail call i32 @g_int_hash(ptr noundef nonnull %3)
  %5 = add i32 %4, %2
  %6 = getelementptr inbounds nuw i8, ptr %0, i64 8
  %7 = tail call i32 @g_int_hash(ptr noundef nonnull %6)
  %8 = add i32 %5, %7
  ret i32 %8
}